target datalayout = "e-m:e-p270:32:32-p271:32:32-p272:64:64-i64:64-i128:128-f80:128-n8:16:32:64-S128"
target triple = "x86_64-pc-linux-gnu"

%struct._cmsOptimizationPluginChunkType = type { ptr }
%struct._cmsOptimizationCollection_st = type { ptr, ptr }
%struct._cmsPipeline_struct = type { ptr, i32, i32, ptr, ptr, ptr, ptr, ptr, ptr, i32 }

; Function Attrs: nounwind uwtable
define hidden i32 @_cmsOptimizePipeline(ptr noundef %0, ptr noundef %1, i32 noundef %2, ptr noundef %3, ptr noundef %4, ptr noundef %5) #0 {
  %7 = alloca i32, align 4
  %8 = alloca ptr, align 8
  %9 = alloca ptr, align 8
  %10 = alloca i32, align 4
  %11 = alloca ptr, align 8
  %12 = alloca ptr, align 8
  %13 = alloca ptr, align 8
  %14 = alloca ptr, align 8
  %15 = alloca ptr, align 8
  %16 = alloca i32, align 4
  %17 = alloca ptr, align 8
  store ptr %0, ptr %8, align 8
  store ptr %1, ptr %9, align 8
  store i32 %2, ptr %10, align 4
  store ptr %3, ptr %11, align 8
  store ptr %4, ptr %12, align 8
  store ptr %5, ptr %13, align 8
  %18 = load ptr, ptr %8, align 8
  %19 = call ptr @_cmsContextGetClientChunk(ptr noundef %18, i32 noundef 12)
  store ptr %19, ptr %14, align 8
  store i32 0, ptr %16, align 4
  %20 = load ptr, ptr %13, align 8
  %21 = load i32, ptr %20, align 4
  %22 = and i32 %21, 2
  %23 = icmp ne i32 %22, 0
  br i1 %23, label %24, label %34

24:                                               ; preds = %6
  %25 = load ptr, ptr %9, align 8
  %26 = load ptr, ptr %25, align 8
  %27 = call i32 @PreOptimize(ptr noundef %26)
  %28 = load ptr, ptr %9, align 8
  %29 = load i32, ptr %10, align 4
  %30 = load ptr, ptr %11, align 8
  %31 = load ptr, ptr %12, align 8
  %32 = load ptr, ptr %13, align 8
  %33 = call i32 @OptimizeByResampling(ptr noundef %28, i32 noundef %29, ptr noundef %30, ptr noundef %31, ptr noundef %32)
  store i32 %33, ptr %7, align 4
  br label %128

34:                                               ; preds = %6
  %35 = load ptr, ptr %9, align 8
  %36 = load ptr, ptr %35, align 8
  %37 = getelementptr inbounds %struct._cmsPipeline_struct, ptr %36, i32 0, i32 0
  %38 = load ptr, ptr %37, align 8
  %39 = icmp eq ptr %38, null
  br i1 %39, label %40, label %45

40:                                               ; preds = %34
  %41 = load ptr, ptr %9, align 8
  %42 = load ptr, ptr %41, align 8
  %43 = load ptr, ptr %9, align 8
  %44 = load ptr, ptr %43, align 8
  call void @_cmsPipelineSetOptimizationParameters(ptr noundef %42, ptr noundef @FastIdentity16, ptr noundef %44, ptr noundef null, ptr noundef null)
  store i32 1, ptr %7, align 4
  br label %128

45:                                               ; preds = %34
  %46 = load ptr, ptr %9, align 8
  %47 = load ptr, ptr %46, align 8
  %48 = call ptr @cmsPipelineGetPtrToFirstStage(ptr noundef %47)
  store ptr %48, ptr %17, align 8
  br label %49

49:                                               ; preds = %58, %45
  %50 = load ptr, ptr %17, align 8
  %51 = icmp ne ptr %50, null
  br i1 %51, label %52, label %61

52:                                               ; preds = %49
  %53 = load ptr, ptr %17, align 8
  %54 = call i32 @cmsStageType(ptr noundef %53)
  %55 = icmp eq i32 %54, 1852009504
  br i1 %55, label %56, label %57

56:                                               ; preds = %52
  store i32 0, ptr %7, align 4
  br label %128

57:                                               ; preds = %52
  br label %58

58:                                               ; preds = %57
  %59 = load ptr, ptr %17, align 8
  %60 = call ptr @cmsStageNext(ptr noundef %59)
  store ptr %60, ptr %17, align 8
  br label %49, !llvm.loop !8

61:                                               ; preds = %49
  %62 = load ptr, ptr %9, align 8
  %63 = load ptr, ptr %62, align 8
  %64 = call i32 @PreOptimize(ptr noundef %63)
  store i32 %64, ptr %16, align 4
  %65 = load ptr, ptr %9, align 8
  %66 = load ptr, ptr %65, align 8
  %67 = getelementptr inbounds %struct._cmsPipeline_struct, ptr %66, i32 0, i32 0
  %68 = load ptr, ptr %67, align 8
  %69 = icmp eq ptr %68, null
  br i1 %69, label %70, label %75

70:                                               ; preds = %61
  %71 = load ptr, ptr %9, align 8
  %72 = load ptr, ptr %71, align 8
  %73 = load ptr, ptr %9, align 8
  %74 = load ptr, ptr %73, align 8
  call void @_cmsPipelineSetOptimizationParameters(ptr noundef %72, ptr noundef @FastIdentity16, ptr noundef %74, ptr noundef null, ptr noundef null)
  store i32 1, ptr %7, align 4
  br label %128

75:                                               ; preds = %61
  %76 = load ptr, ptr %13, align 8
  %77 = load i32, ptr %76, align 4
  %78 = and i32 %77, 256
  %79 = icmp ne i32 %78, 0
  br i1 %79, label %80, label %81

80:                                               ; preds = %75
  store i32 0, ptr %7, align 4
  br label %128

81:                                               ; preds = %75
  %82 = load ptr, ptr %14, align 8
  %83 = getelementptr inbounds %struct._cmsOptimizationPluginChunkType, ptr %82, i32 0, i32 0
  %84 = load ptr, ptr %83, align 8
  store ptr %84, ptr %15, align 8
  br label %85

85:                                               ; preds = %101, %81
  %86 = load ptr, ptr %15, align 8
  %87 = icmp ne ptr %86, null
  br i1 %87, label %88, label %105

88:                                               ; preds = %85
  %89 = load ptr, ptr %15, align 8
  %90 = getelementptr inbounds %struct._cmsOptimizationCollection_st, ptr %89, i32 0, i32 0
  %91 = load ptr, ptr %90, align 8
  %92 = load ptr, ptr %9, align 8
  %93 = load i32, ptr %10, align 4
  %94 = load ptr, ptr %11, align 8
  %95 = load ptr, ptr %12, align 8
  %96 = load ptr, ptr %13, align 8
  %97 = call i32 %91(ptr noundef %92, i32 noundef %93, ptr noundef %94, ptr noundef %95, ptr noundef %96)
  %98 = icmp ne i32 %97, 0
  br i1 %98, label %99, label %100

99:                                               ; preds = %88
  store i32 1, ptr %7, align 4
  br label %128

100:                                              ; preds = %88
  br label %101

101:                                              ; preds = %100
  %102 = load ptr, ptr %15, align 8
  %103 = getelementptr inbounds %struct._cmsOptimizationCollection_st, ptr %102, i32 0, i32 1
  %104 = load ptr, ptr %103, align 8
  store ptr %104, ptr %15, align 8
  br label %85, !llvm.loop !9

105:                                              ; preds = %85
  store ptr @DefaultOptimization, ptr %15, align 8
  br label %106

106:                                              ; preds = %122, %105
  %107 = load ptr, ptr %15, align 8
  %108 = icmp ne ptr %107, null
  br i1 %108, label %109, label %126

109:                                              ; preds = %106
  %110 = load ptr, ptr %15, align 8
  %111 = getelementptr inbounds %struct._cmsOptimizationCollection_st, ptr %110, i32 0, i32 0
  %112 = load ptr, ptr %111, align 8
  %113 = load ptr, ptr %9, align 8
  %114 = load i32, ptr %10, align 4
  %115 = load ptr, ptr %11, align 8
  %116 = load ptr, ptr %12, align 8
  %117 = load ptr, ptr %13, align 8
  %118 = call i32 %112(ptr noundef %113, i32 noundef %114, ptr noundef %115, ptr noundef %116, ptr noundef %117)
  %119 = icmp ne i32 %118, 0
  br i1 %119, label %120, label %121

120:                                              ; preds = %109
  store i32 1, ptr %7, align 4
  br label %128

121:                                              ; preds = %109
  br label %122

122:                                              ; preds = %121
  %123 = load ptr, ptr %15, align 8
  %124 = getelementptr inbounds %struct._cmsOptimizationCollection_st, ptr %123, i32 0, i32 1
  %125 = load ptr, ptr %124, align 8
  store ptr %125, ptr %15, align 8
  br label %106, !llvm.loop !10

126:                                              ; preds = %106
  %127 = load i32, ptr %16, align 4
  store i32 %127, ptr %7, align 4
  br label %128

128:                                              ; preds = %126, %120, %99, %80, %70, %56, %40, %24
  %129 = load i32, ptr %7, align 4
  ret i32 %129
}