; Function Attrs: nounwind uwtable
define hidden range(i32 0, 2) i32 @_cmsOptimizePipeline(ptr noundef %0, ptr noundef %1, i32 noundef %2, ptr noundef %3, ptr noundef %4, ptr noundef %5) local_unnamed_addr #0 {
  %7 = tail call ptr @_cmsContextGetClientChunk(ptr noundef %0, i32 noundef 12) #10
  %8 = load i32, ptr %5, align 4
  %9 = and i32 %8, 2
  %.not = icmp eq i32 %9, 0
  %10 = load ptr, ptr %1, align 8
  br i1 %.not, label %14, label %11

11:                                               ; preds = %6
  %12 = tail call fastcc i32 @PreOptimize(ptr noundef %10)
  %13 = tail call i32 @OptimizeByResampling(ptr noundef nonnull %1, i32 noundef %2, ptr noundef %3, ptr noundef %4, ptr noundef nonnull %5)
  br label %.loopexit

14:                                               ; preds = %6
  %15 = load ptr, ptr %10, align 8
  %16 = icmp eq ptr %15, null
  br i1 %16, label %17, label %18

17:                                               ; preds = %14
  tail call void @_cmsPipelineSetOptimizationParameters(ptr noundef nonnull %10, ptr noundef nonnull @FastIdentity16, ptr noundef nonnull %10, ptr noundef null, ptr noundef null) #10
  br label %.loopexit

18:                                               ; preds = %14
  %19 = tail call ptr @cmsPipelineGetPtrToFirstStage(ptr noundef nonnull %10) #10
  %.not4049 = icmp eq ptr %19, null
  br i1 %.not4049, label %._crit_edge, label %.lr.ph

.lr.ph:                                           ; preds = %18, %22
  %.050 = phi ptr [ %23, %22 ], [ %19, %18 ]
  %20 = tail call i32 @cmsStageType(ptr noundef nonnull %.050) #10
  %21 = icmp eq i32 %20, 1852009504
  br i1 %21, label %.loopexit, label %22

22:                                               ; preds = %.lr.ph
  %23 = tail call ptr @cmsStageNext(ptr noundef nonnull %.050) #10
  %.not40 = icmp eq ptr %23, null
  br i1 %.not40, label %._crit_edge, label %.lr.ph, !llvm.loop !8

._crit_edge:                                      ; preds = %22, %18
  %24 = load ptr, ptr %1, align 8
  %25 = tail call fastcc i32 @PreOptimize(ptr noundef %24)
  %26 = load ptr, ptr %1, align 8
  %27 = load ptr, ptr %26, align 8
  %28 = icmp eq ptr %27, null
  br i1 %28, label %29, label %30

29:                                               ; preds = %._crit_edge
  tail call void @_cmsPipelineSetOptimizationParameters(ptr noundef nonnull %26, ptr noundef nonnull @FastIdentity16, ptr noundef nonnull %26, ptr noundef null, ptr noundef null) #10
  br label %.loopexit

30:                                               ; preds = %._crit_edge
  %31 = load i32, ptr %5, align 4
  %32 = and i32 %31, 256
  %.not41 = icmp eq i32 %32, 0
  br i1 %.not41, label %.preheader46, label %.loopexit

.preheader46:                                     ; preds = %30
  %.03851 = load ptr, ptr %7, align 8
  %.not4252 = icmp eq ptr %.03851, null
  br i1 %.not4252, label %.preheader.preheader, label %.lr.ph54

.preheader.preheader:                             ; preds = %33, %.preheader46
  br label %.preheader

33:                                               ; preds = %.lr.ph54
  %34 = getelementptr inbounds i8, ptr %.03853, i64 8
  %.038 = load ptr, ptr %34, align 8
  %.not42 = icmp eq ptr %.038, null
  br i1 %.not42, label %.preheader.preheader, label %.lr.ph54, !llvm.loop !9

.lr.ph54:                                         ; preds = %.preheader46, %33
  %.03853 = phi ptr [ %.038, %33 ], [ %.03851, %.preheader46 ]
  %35 = load ptr, ptr %.03853, align 8
  %36 = tail call i32 %35(ptr noundef nonnull %1, i32 noundef %2, ptr noundef %3, ptr noundef %4, ptr noundef nonnull %5) #10
  %.not45 = icmp eq i32 %36, 0
  br i1 %.not45, label %33, label %.loopexit

.preheader:                                       ; preds = %.preheader.preheader, %39
  %.155 = phi ptr [ %41, %39 ], [ @DefaultOptimization, %.preheader.preheader ]
  %37 = load ptr, ptr %.155, align 8
  %38 = tail call i32 %37(ptr noundef nonnull %1, i32 noundef %2, ptr noundef %3, ptr noundef %4, ptr noundef nonnull %5) #10
  %.not44 = icmp eq i32 %38, 0
  br i1 %.not44, label %39, label %.loopexit

39:                                               ; preds = %.preheader
  %40 = getelementptr inbounds i8, ptr %.155, i64 8
  %41 = load ptr, ptr %40, align 8
  %.not43 = icmp eq ptr %41, null
  br i1 %.not43, label %.loopexit, label %.preheader, !llvm.loop !10

.loopexit:                                        ; preds = %.lr.ph, %.lr.ph54, %39, %.preheader, %30, %29, %17, %11
  %.039 = phi i32 [ %13, %11 ], [ 1, %17 ], [ 1, %29 ], [ 0, %30 ], [ %25, %39 ], [ 1, %.preheader ], [ 1, %.lr.ph54 ], [ 0, %.lr.ph ]
  ret i32 %.039
}